; Function Attrs: mustprogress uwtable
define hidden noundef zeroext i1 @_ZN5array6solver26assert_default_const_axiomEP3app(ptr noundef nonnull align 8 dereferenceable(536) %this, ptr noundef %cnst) local_unnamed_addr #3 align 2 personality ptr @__gxx_personality_v0 {
entry:
  %a.addr.i = alloca ptr, align 8
  %val = alloca ptr, align 8
  %def = alloca %class.obj_ref, align 8
  %m_num_default_const_axiom = getelementptr inbounds i8, ptr %this, i64 172
  %0 = load i32, ptr %m_num_default_const_axiom, align 4
  %inc = add i32 %0, 1
  store i32 %inc, ptr %m_num_default_const_axiom, align 4
  store ptr null, ptr %val, align 8
  %a = getelementptr inbounds i8, ptr %this, i64 112
  %call = call noundef zeroext i1 @_ZNK17array_recognizers8is_constEP4exprRS1_(ptr noundef nonnull align 4 dereferenceable(4) %a, ptr noundef %cnst, ptr noundef nonnull align 8 dereferenceable(8) %val)
  br i1 %call, label %if.end, label %if.then

if.then:                                          ; preds = %entry
  call void @_Z26notify_assertion_violationPKciS0_(ptr noundef nonnull @.str, i32 noundef 386, ptr noundef nonnull @.str.6)
  call void @exit(i32 noundef 114) #17
  unreachable

if.end:                                           ; preds = %entry
  call void @llvm.lifetime.start.p0(i64 8, ptr nonnull %a.addr.i)
  store ptr %cnst, ptr %a.addr.i, align 8
  %m_manager.i = getelementptr inbounds i8, ptr %this, i64 120
  %1 = load ptr, ptr %m_manager.i, align 8
  %2 = load i32, ptr %a, align 8
  %call.i = call noundef ptr @_ZN11ast_manager6mk_appEiijPK9parameterjPKP4exprP4sort(ptr noundef nonnull align 8 dereferenceable(976) %1, i32 noundef %2, i32 noundef 4, i32 noundef 0, ptr noundef null, i32 noundef 1, ptr noundef nonnull %a.addr.i, ptr noundef null)
  call void @llvm.lifetime.end.p0(i64 8, ptr nonnull %a.addr.i)
  %m = getelementptr inbounds i8, ptr %this, i64 72
  %3 = load ptr, ptr %m, align 8
  store ptr %call.i, ptr %def, align 8
  %m_manager.i2 = getelementptr inbounds i8, ptr %def, i64 8
  store ptr %3, ptr %m_manager.i2, align 8
  %tobool.not.i.i = icmp eq ptr %call.i, null
  br i1 %tobool.not.i.i, label %_ZN7obj_refI4expr11ast_managerEC2EPS0_RS1_.exit, label %_ZN11ast_manager7inc_refEP3ast.exit.i.i

_ZN11ast_manager7inc_refEP3ast.exit.i.i:          ; preds = %if.end
  %m_ref_count.i.i.i.i = getelementptr inbounds i8, ptr %call.i, i64 8
  %4 = load i32, ptr %m_ref_count.i.i.i.i, align 4
  %inc.i.i.i.i = add i32 %4, 1
  store i32 %inc.i.i.i.i, ptr %m_ref_count.i.i.i.i, align 4
  br label %_ZN7obj_refI4expr11ast_managerEC2EPS0_RS1_.exit

_ZN7obj_refI4expr11ast_managerEC2EPS0_RS1_.exit:  ; preds = %if.end, %_ZN11ast_manager7inc_refEP3ast.exit.i.i
  %ctx = getelementptr inbounds i8, ptr %this, i64 80
  %5 = load ptr, ptr %ctx, align 8
  %6 = load ptr, ptr %val, align 8
  %call4 = invoke noundef ptr @_ZNK3euf13th_euf_solver10expr2enodeEP4expr(ptr noundef nonnull align 8 dereferenceable(108) %this, ptr noundef %6)
          to label %invoke.cont unwind label %lpad

invoke.cont:                                      ; preds = %_ZN7obj_refI4expr11ast_managerEC2EPS0_RS1_.exit
  %call8 = invoke noundef ptr @_ZN3euf13th_euf_solver13e_internalizeEP4expr(ptr noundef nonnull align 8 dereferenceable(108) %this, ptr noundef %call.i)
          to label %invoke.cont9 unwind label %lpad

invoke.cont9:                                     ; preds = %invoke.cont
  %m_constraint.i = getelementptr inbounds i8, ptr %this, i64 464
  %7 = load ptr, ptr %m_constraint.i, align 8
  %8 = ptrtoint ptr %7 to i64
  %call12 = invoke noundef zeroext i1 @_ZN3euf6solver9propagateEPNS_5enodeES2_m(ptr noundef nonnull align 8 dereferenceable(9136) %5, ptr noundef %call4, ptr noundef %call8, i64 noundef %8)
          to label %invoke.cont11 unwind label %lpad

invoke.cont11:                                    ; preds = %invoke.cont9
  br i1 %tobool.not.i.i, label %_ZN7obj_refI4expr11ast_managerED2Ev.exit, label %if.then.i.i.i

if.then.i.i.i:                                    ; preds = %invoke.cont11
  %m_ref_count.i.i.i.i4 = getelementptr inbounds i8, ptr %call.i, i64 8
  %9 = load i32, ptr %m_ref_count.i.i.i.i4, align 4
  %dec.i.i.i.i = add i32 %9, -1
  store i32 %dec.i.i.i.i, ptr %m_ref_count.i.i.i.i4, align 4
  %cmp.i.i.i = icmp eq i32 %dec.i.i.i.i, 0
  br i1 %cmp.i.i.i, label %if.then2.i.i.i, label %_ZN7obj_refI4expr11ast_managerED2Ev.exit

if.then2.i.i.i:                                   ; preds = %if.then.i.i.i
  invoke void @_ZN11ast_manager11delete_nodeEP3ast(ptr noundef nonnull align 8 dereferenceable(976) %3, ptr noundef nonnull %call.i)
          to label %_ZN7obj_refI4expr11ast_managerED2Ev.exit unwind label %terminate.lpad.i

terminate.lpad.i:                                 ; preds = %if.then2.i.i.i
  %10 = landingpad { ptr, i32 }
          catch ptr null
  %11 = extractvalue { ptr, i32 } %10, 0
  call void @__clang_call_terminate(ptr %11) #17
  unreachable

_ZN7obj_refI4expr11ast_managerED2Ev.exit:         ; preds = %invoke.cont11, %if.then.i.i.i, %if.then2.i.i.i
  ret i1 %call12

lpad:                                             ; preds = %invoke.cont9, %invoke.cont, %_ZN7obj_refI4expr11ast_managerEC2EPS0_RS1_.exit
  %12 = landingpad { ptr, i32 }
          cleanup
  call void @_ZN7obj_refI4expr11ast_managerED2Ev(ptr noundef nonnull align 8 dereferenceable(16) %def) #18
  resume { ptr, i32 } %12
}